target datalayout = "e-m:e-p270:32:32-p271:32:32-p272:64:64-i64:64-i128:128-f80:128-n8:16:32:64-S128"
target triple = "x86_64-pc-linux-gnu"

%struct.preference = type { ptr, ptr, ptr, i32, i32, i32, %union.anon, %union.anon.0, %union.anon.1, %union.anon.2, %struct.pref_custom_cbs, ptr, ptr }
%union.anon = type { ptr }
%union.anon.0 = type { ptr }
%union.anon.1 = type { ptr }
%union.anon.2 = type { %struct.anon }
%struct.anon = type { ptr, i8 }
%struct.pref_custom_cbs = type { ptr, ptr, ptr, ptr, ptr, ptr, ptr }

@.str.31 = private unnamed_addr constant [10 x i8] c"[Unknown]\00", align 1
@.str.32 = private unnamed_addr constant [9 x i8] c"Obsolete\00", align 1
@.str.33 = private unnamed_addr constant [8 x i8] c"Decimal\00", align 1
@.str.34 = private unnamed_addr constant [6 x i8] c"Octal\00", align 1
@.str.35 = private unnamed_addr constant [12 x i8] c"Hexadecimal\00", align 1
@.str.36 = private unnamed_addr constant [8 x i8] c"Boolean\00", align 1
@.str.37 = private unnamed_addr constant [7 x i8] c"Choice\00", align 1
@.str.38 = private unnamed_addr constant [7 x i8] c"String\00", align 1
@.str.39 = private unnamed_addr constant [9 x i8] c"Filename\00", align 1
@.str.40 = private unnamed_addr constant [10 x i8] c"Directory\00", align 1
@.str.41 = private unnamed_addr constant [6 x i8] c"Range\00", align 1
@.str.42 = private unnamed_addr constant [6 x i8] c"Color\00", align 1
@.str.43 = private unnamed_addr constant [7 x i8] c"Custom\00", align 1
@.str.44 = private unnamed_addr constant [22 x i8] c"Range (for Decode As)\00", align 1
@.str.45 = private unnamed_addr constant [12 x i8] c"Static text\00", align 1
@.str.46 = private unnamed_addr constant [4 x i8] c"UAT\00", align 1
@.str.47 = private unnamed_addr constant [9 x i8] c"Password\00", align 1
@.str.48 = private unnamed_addr constant [10 x i8] c"Dissector\00", align 1

; Function Attrs: null_pointer_is_valid sspstrong uwtable
define ptr @prefs_pref_type_name(ptr noundef %0) #1 {
  %2 = alloca ptr, align 8
  %3 = alloca ptr, align 8
  %4 = alloca ptr, align 8
  %5 = alloca i32, align 4
  %6 = alloca i32, align 4
  store ptr %0, ptr %3, align 8
  call void @llvm.lifetime.start.p0(i64 8, ptr %4) #17
  store ptr @.str.31, ptr %4, align 8
  call void @llvm.lifetime.start.p0(i64 4, ptr %5) #17
  %7 = load ptr, ptr %3, align 8
  %8 = icmp ne ptr %7, null
  br i1 %8, label %11, label %9

9:                                                ; preds = %1
  %10 = load ptr, ptr %4, align 8
  store ptr %10, ptr %2, align 8
  store i32 1, ptr %6, align 4
  br label %59

11:                                               ; preds = %1
  %12 = load ptr, ptr %3, align 8
  %13 = getelementptr inbounds nuw %struct.preference, ptr %12, i32 0, i32 4
  %14 = load i32, ptr %13, align 4
  store i32 %14, ptr %5, align 4
  %15 = load i32, ptr %5, align 4
  %16 = and i32 %15, 1024
  %17 = icmp ne i32 %16, 0
  br i1 %17, label %18, label %19

18:                                               ; preds = %11
  store ptr @.str.32, ptr %4, align 8
  br label %22

19:                                               ; preds = %11
  %20 = load i32, ptr %5, align 4
  %21 = and i32 %20, -1025
  store i32 %21, ptr %5, align 4
  br label %22

22:                                               ; preds = %19, %18
  %23 = load i32, ptr %5, align 4
  switch i32 %23, label %57 [
    i32 1, label %24
    i32 2, label %32
    i32 4, label %33
    i32 65536, label %33
    i32 8, label %34
    i32 128, label %35
    i32 16384, label %35
    i32 2048, label %36
    i32 16, label %37
    i32 256, label %38
    i32 512, label %39
    i32 8192, label %52
    i32 32, label %53
    i32 64, label %54
    i32 32768, label %55
    i32 131072, label %56
  ]

24:                                               ; preds = %22
  %25 = load ptr, ptr %3, align 8
  %26 = getelementptr inbounds nuw %struct.preference, ptr %25, i32 0, i32 9
  %27 = load i32, ptr %26, align 8
  switch i32 %27, label %31 [
    i32 10, label %28
    i32 8, label %29
    i32 16, label %30
  ]

28:                                               ; preds = %24
  store ptr @.str.33, ptr %4, align 8
  br label %31

29:                                               ; preds = %24
  store ptr @.str.34, ptr %4, align 8
  br label %31

30:                                               ; preds = %24
  store ptr @.str.35, ptr %4, align 8
  br label %31

31:                                               ; preds = %24, %30, %29, %28
  br label %57

32:                                               ; preds = %22
  store ptr @.str.36, ptr %4, align 8
  br label %57

33:                                               ; preds = %22, %22
  store ptr @.str.37, ptr %4, align 8
  br label %57

34:                                               ; preds = %22
  store ptr @.str.38, ptr %4, align 8
  br label %57

35:                                               ; preds = %22, %22
  store ptr @.str.39, ptr %4, align 8
  br label %57

36:                                               ; preds = %22
  store ptr @.str.40, ptr %4, align 8
  br label %57

37:                                               ; preds = %22
  store ptr @.str.41, ptr %4, align 8
  br label %57

38:                                               ; preds = %22
  store ptr @.str.42, ptr %4, align 8
  br label %57

39:                                               ; preds = %22
  %40 = load ptr, ptr %3, align 8
  %41 = getelementptr inbounds nuw %struct.preference, ptr %40, i32 0, i32 10
  %42 = getelementptr inbounds nuw %struct.pref_custom_cbs, ptr %41, i32 0, i32 3
  %43 = load ptr, ptr %42, align 8
  %44 = icmp ne ptr %43, null
  br i1 %44, label %45, label %51

45:                                               ; preds = %39
  %46 = load ptr, ptr %3, align 8
  %47 = getelementptr inbounds nuw %struct.preference, ptr %46, i32 0, i32 10
  %48 = getelementptr inbounds nuw %struct.pref_custom_cbs, ptr %47, i32 0, i32 3
  %49 = load ptr, ptr %48, align 8
  %50 = call ptr %49()
  store ptr %50, ptr %2, align 8
  store i32 1, ptr %6, align 4
  br label %59

51:                                               ; preds = %39
  store ptr @.str.43, ptr %4, align 8
  br label %57

52:                                               ; preds = %22
  store ptr @.str.44, ptr %4, align 8
  br label %57

53:                                               ; preds = %22
  store ptr @.str.45, ptr %4, align 8
  br label %57

54:                                               ; preds = %22
  store ptr @.str.46, ptr %4, align 8
  br label %57

55:                                               ; preds = %22
  store ptr @.str.47, ptr %4, align 8
  br label %57

56:                                               ; preds = %22
  store ptr @.str.48, ptr %4, align 8
  br label %57

57:                                               ; preds = %22, %56, %55, %54, %53, %52, %51, %38, %37, %36, %35, %34, %33, %32, %31
  %58 = load ptr, ptr %4, align 8
  store ptr %58, ptr %2, align 8
  store i32 1, ptr %6, align 4
  br label %59

59:                                               ; preds = %57, %45, %9
  call void @llvm.lifetime.end.p0(i64 4, ptr %5) #17
  call void @llvm.lifetime.end.p0(i64 8, ptr %4) #17
  %60 = load ptr, ptr %2, align 8
  ret ptr %60
}