; Function Attrs: null_pointer_is_valid sspstrong uwtable
define ptr @prefs_pref_type_name(ptr noundef readonly captures(address_is_null) %0) local_unnamed_addr #1 {
  %.not = icmp eq ptr %0, null
  br i1 %.not, label %29, label %2

2:                                                ; preds = %1
  %3 = getelementptr inbounds nuw i8, ptr %0, i64 28
  %4 = load i32, ptr %3, align 4
  %5 = and i32 %4, 1024
  %.not14 = icmp eq i32 %5, 0
  %.str.31..str.32 = select i1 %.not14, ptr @.str.31, ptr @.str.32
  switch i32 %4, label %29 [
    i32 1, label %6
    i32 2, label %12
    i32 4, label %13
    i32 65536, label %13
    i32 8, label %14
    i32 128, label %15
    i32 16384, label %15
    i32 2048, label %16
    i32 16, label %17
    i32 256, label %18
    i32 512, label %19
    i32 8192, label %24
    i32 32, label %25
    i32 64, label %26
    i32 32768, label %27
    i32 131072, label %28
  ]

6:                                                ; preds = %2
  %7 = getelementptr inbounds nuw i8, ptr %0, i64 64
  %8 = load i32, ptr %7, align 8
  switch i32 %8, label %29 [
    i32 10, label %9
    i32 8, label %10
    i32 16, label %11
  ]

9:                                                ; preds = %6
  br label %29

10:                                               ; preds = %6
  br label %29

11:                                               ; preds = %6
  br label %29

12:                                               ; preds = %2
  br label %29

13:                                               ; preds = %2, %2
  br label %29

14:                                               ; preds = %2
  br label %29

15:                                               ; preds = %2, %2
  br label %29

16:                                               ; preds = %2
  br label %29

17:                                               ; preds = %2
  br label %29

18:                                               ; preds = %2
  br label %29

19:                                               ; preds = %2
  %20 = getelementptr inbounds nuw i8, ptr %0, i64 104
  %21 = load ptr, ptr %20, align 8
  %.not15 = icmp eq ptr %21, null
  br i1 %.not15, label %29, label %22

22:                                               ; preds = %19
  %23 = tail call ptr %21()
  br label %29

24:                                               ; preds = %2
  br label %29

25:                                               ; preds = %2
  br label %29

26:                                               ; preds = %2
  br label %29

27:                                               ; preds = %2
  br label %29

28:                                               ; preds = %2
  br label %29

29:                                               ; preds = %2, %12, %13, %14, %15, %16, %17, %18, %24, %25, %26, %27, %28, %11, %10, %9, %6, %19, %1, %22
  %.011 = phi ptr [ %23, %22 ], [ @.str.31, %1 ], [ %.str.31..str.32, %2 ], [ @.str.48, %28 ], [ @.str.47, %27 ], [ @.str.46, %26 ], [ @.str.45, %25 ], [ @.str.44, %24 ], [ @.str.42, %18 ], [ @.str.41, %17 ], [ @.str.40, %16 ], [ @.str.39, %15 ], [ @.str.38, %14 ], [ @.str.37, %13 ], [ @.str.36, %12 ], [ %.str.31..str.32, %6 ], [ @.str.35, %11 ], [ @.str.34, %10 ], [ @.str.33, %9 ], [ @.str.43, %19 ]
  ret ptr %.011
}